target datalayout = "e-m:e-p270:32:32-p271:32:32-p272:64:64-i64:64-i128:128-f80:128-n8:16:32:64-S128"
target triple = "x86_64-pc-linux-gnu"

%struct.ForEachState = type { ptr, i32 }
%struct.List = type { i32, i32, i32, ptr, [0 x %union.ListCell] }
%union.ListCell = type { ptr }
%struct.A_Indices = type { i32, i8, ptr, ptr }
%struct.ParseState = type { ptr, ptr, i32, i32, ptr, ptr, ptr, ptr, ptr, ptr, i8, ptr, ptr, ptr, ptr, ptr, ptr, i8, ptr, i32, i32, ptr, ptr, i8, i8, ptr, i8, i8, i8, i8, i8, ptr, ptr, ptr, ptr, ptr, ptr }
%struct.SubscriptingRef = type { %struct.Expr, i32, i32, i32, i32, i32, ptr, ptr, ptr, ptr }
%struct.Expr = type { i32 }

@.str = private unnamed_addr constant [39 x i8] c"array subscript must have type integer\00", align 1
@.str.1 = private unnamed_addr constant [12 x i8] c"arraysubs.c\00", align 1
@__func__.array_subscript_transform = private unnamed_addr constant [26 x i8] c"array_subscript_transform\00", align 1
@.str.2 = private unnamed_addr constant [65 x i8] c"number of array dimensions (%d) exceeds the maximum allowed (%d)\00", align 1

; Function Attrs: inlinehint nounwind uwtable
define internal i32 @list_length(ptr noundef %0) #1 {
  %2 = alloca ptr, align 8
  store ptr %0, ptr %2, align 8
  %3 = load ptr, ptr %2, align 8
  %4 = icmp ne ptr %3, null
  br i1 %4, label %5, label %9

5:                                                ; preds = %1
  %6 = load ptr, ptr %2, align 8
  %7 = getelementptr inbounds nuw %struct.List, ptr %6, i32 0, i32 1
  %8 = load i32, ptr %7, align 4
  br label %10

9:                                                ; preds = %1
  br label %10

10:                                               ; preds = %9, %5
  %11 = phi i32 [ %8, %5 ], [ 0, %9 ]
  ret i32 %11
}

; Function Attrs: inlinehint nounwind uwtable
define internal i64 @Int32GetDatum(i32 noundef %0) #1 {
  %2 = alloca i32, align 4
  store i32 %0, ptr %2, align 4
  %3 = load i32, ptr %2, align 4
  %4 = sext i32 %3 to i64
  ret i64 %4
}

; Function Attrs: nounwind uwtable
define internal void @array_subscript_transform(ptr noundef %0, ptr noundef %1, ptr noundef %2, i1 noundef zeroext %3, i1 noundef zeroext %4) #0 {
  %6 = alloca ptr, align 8
  %7 = alloca ptr, align 8
  %8 = alloca ptr, align 8
  %9 = alloca i8, align 1
  %10 = alloca i8, align 1
  %11 = alloca ptr, align 8
  %12 = alloca ptr, align 8
  %13 = alloca ptr, align 8
  %14 = alloca %struct.ForEachState, align 8
  %15 = alloca ptr, align 8
  %16 = alloca ptr, align 8
  store ptr %0, ptr %6, align 8
  store ptr %1, ptr %7, align 8
  store ptr %2, ptr %8, align 8
  %17 = zext i1 %3 to i8
  store i8 %17, ptr %9, align 1
  %18 = zext i1 %4 to i8
  store i8 %18, ptr %10, align 1
  call void @llvm.lifetime.start.p0(i64 8, ptr %11) #6
  store ptr null, ptr %11, align 8
  call void @llvm.lifetime.start.p0(i64 8, ptr %12) #6
  store ptr null, ptr %12, align 8
  call void @llvm.lifetime.start.p0(i64 8, ptr %13) #6
  call void @llvm.lifetime.start.p0(i64 16, ptr %14) #6
  %19 = getelementptr inbounds nuw %struct.ForEachState, ptr %14, i32 0, i32 0
  %20 = load ptr, ptr %7, align 8
  store ptr %20, ptr %19, align 8
  %21 = getelementptr inbounds nuw %struct.ForEachState, ptr %14, i32 0, i32 1
  store i32 0, ptr %21, align 8
  %22 = getelementptr i8, ptr %14, i64 12
  call void @llvm.memset.p0.i64(ptr align 4 %22, i8 0, i64 4, i1 false)
  br label %23

23:                                               ; preds = %154, %5
  %24 = getelementptr inbounds nuw %struct.ForEachState, ptr %14, i32 0, i32 0
  %25 = load ptr, ptr %24, align 8
  %26 = icmp ne ptr %25, null
  br i1 %26, label %27, label %44

27:                                               ; preds = %23
  %28 = getelementptr inbounds nuw %struct.ForEachState, ptr %14, i32 0, i32 1
  %29 = load i32, ptr %28, align 8
  %30 = getelementptr inbounds nuw %struct.ForEachState, ptr %14, i32 0, i32 0
  %31 = load ptr, ptr %30, align 8
  %32 = getelementptr inbounds nuw %struct.List, ptr %31, i32 0, i32 1
  %33 = load i32, ptr %32, align 4
  %34 = icmp slt i32 %29, %33
  br i1 %34, label %35, label %44

35:                                               ; preds = %27
  %36 = getelementptr inbounds nuw %struct.ForEachState, ptr %14, i32 0, i32 0
  %37 = load ptr, ptr %36, align 8
  %38 = getelementptr inbounds nuw %struct.List, ptr %37, i32 0, i32 3
  %39 = load ptr, ptr %38, align 8
  %40 = getelementptr inbounds nuw %struct.ForEachState, ptr %14, i32 0, i32 1
  %41 = load i32, ptr %40, align 8
  %42 = sext i32 %41 to i64
  %43 = getelementptr inbounds %union.ListCell, ptr %39, i64 %42
  store ptr %43, ptr %13, align 8
  br label %45

44:                                               ; preds = %27, %23
  store ptr null, ptr %13, align 8
  br label %45

45:                                               ; preds = %44, %35
  %46 = phi i32 [ 1, %35 ], [ 0, %44 ]
  %47 = icmp ne i32 %46, 0
  br i1 %47, label %49, label %48

48:                                               ; preds = %45
  call void @llvm.lifetime.end.p0(i64 16, ptr %14) #6
  br label %158

49:                                               ; preds = %45
  call void @llvm.lifetime.start.p0(i64 8, ptr %15) #6
  %50 = load ptr, ptr %13, align 8
  %51 = load ptr, ptr %50, align 8
  store ptr %51, ptr %15, align 8
  call void @llvm.lifetime.start.p0(i64 8, ptr %16) #6
  %52 = load i8, ptr %9, align 1, !range !4, !noundef !5
  %53 = trunc i8 %52 to i1
  br i1 %53, label %54, label %108

54:                                               ; preds = %49
  %55 = load ptr, ptr %15, align 8
  %56 = getelementptr inbounds nuw %struct.A_Indices, ptr %55, i32 0, i32 2
  %57 = load ptr, ptr %56, align 8
  %58 = icmp ne ptr %57, null
  br i1 %58, label %59, label %94

59:                                               ; preds = %54
  %60 = load ptr, ptr %8, align 8
  %61 = load ptr, ptr %15, align 8
  %62 = getelementptr inbounds nuw %struct.A_Indices, ptr %61, i32 0, i32 2
  %63 = load ptr, ptr %62, align 8
  %64 = load ptr, ptr %8, align 8
  %65 = getelementptr inbounds nuw %struct.ParseState, ptr %64, i32 0, i32 19
  %66 = load i32, ptr %65, align 8
  %67 = call ptr @transformExpr(ptr noundef %60, ptr noundef %63, i32 noundef %66)
  store ptr %67, ptr %16, align 8
  %68 = load ptr, ptr %8, align 8
  %69 = load ptr, ptr %16, align 8
  %70 = load ptr, ptr %16, align 8
  %71 = call i32 @exprType(ptr noundef %70)
  %72 = call ptr @coerce_to_target_type(ptr noundef %68, ptr noundef %69, i32 noundef %71, i32 noundef 23, i32 noundef -1, i32 noundef 1, i32 noundef 2, i32 noundef -1)
  store ptr %72, ptr %16, align 8
  %73 = load ptr, ptr %16, align 8
  %74 = icmp eq ptr %73, null
  br i1 %74, label %75, label %93

75:                                               ; preds = %59
  br label %76

76:                                               ; preds = %75
  br i1 true, label %77, label %79

77:                                               ; preds = %76
  %78 = call zeroext i1 @errstart_cold(i32 noundef 21, ptr noundef null) #7
  br i1 %78, label %81, label %90

79:                                               ; preds = %76
  %80 = call zeroext i1 @errstart(i32 noundef 21, ptr noundef null)
  br i1 %80, label %81, label %90

81:                                               ; preds = %79, %77
  %82 = call i32 @errcode(i32 noundef 67141764)
  %83 = call i32 (ptr, ...) @errmsg(ptr noundef @.str)
  %84 = load ptr, ptr %8, align 8
  %85 = load ptr, ptr %15, align 8
  %86 = getelementptr inbounds nuw %struct.A_Indices, ptr %85, i32 0, i32 2
  %87 = load ptr, ptr %86, align 8
  %88 = call i32 @exprLocation(ptr noundef %87)
  %89 = call i32 @parser_errposition(ptr noundef %84, i32 noundef %88)
  call void @errfinish(ptr noundef @.str.1, i32 noundef 95, ptr noundef @__func__.array_subscript_transform)
  br label %90

90:                                               ; preds = %81, %79, %77
  unreachable

91:                                               ; No predecessors!
  br label %92

92:                                               ; preds = %91
  br label %93

93:                                               ; preds = %92, %59
  br label %104

94:                                               ; preds = %54
  %95 = load ptr, ptr %15, align 8
  %96 = getelementptr inbounds nuw %struct.A_Indices, ptr %95, i32 0, i32 1
  %97 = load i8, ptr %96, align 4, !range !4, !noundef !5
  %98 = trunc i8 %97 to i1
  br i1 %98, label %102, label %99

99:                                               ; preds = %94
  %100 = call i64 @Int32GetDatum(i32 noundef 1)
  %101 = call ptr @makeConst(i32 noundef 23, i32 noundef -1, i32 noundef 0, i32 noundef 4, i64 noundef %100, i1 noundef zeroext false, i1 noundef zeroext true)
  store ptr %101, ptr %16, align 8
  br label %103

102:                                              ; preds = %94
  store ptr null, ptr %16, align 8
  br label %103

103:                                              ; preds = %102, %99
  br label %104

104:                                              ; preds = %103, %93
  %105 = load ptr, ptr %12, align 8
  %106 = load ptr, ptr %16, align 8
  %107 = call ptr @lappend(ptr noundef %105, ptr noundef %106)
  store ptr %107, ptr %12, align 8
  br label %109

108:                                              ; preds = %49
  br label %109

109:                                              ; preds = %108, %104
  %110 = load ptr, ptr %15, align 8
  %111 = getelementptr inbounds nuw %struct.A_Indices, ptr %110, i32 0, i32 3
  %112 = load ptr, ptr %111, align 8
  %113 = icmp ne ptr %112, null
  br i1 %113, label %114, label %149

114:                                              ; preds = %109
  %115 = load ptr, ptr %8, align 8
  %116 = load ptr, ptr %15, align 8
  %117 = getelementptr inbounds nuw %struct.A_Indices, ptr %116, i32 0, i32 3
  %118 = load ptr, ptr %117, align 8
  %119 = load ptr, ptr %8, align 8
  %120 = getelementptr inbounds nuw %struct.ParseState, ptr %119, i32 0, i32 19
  %121 = load i32, ptr %120, align 8
  %122 = call ptr @transformExpr(ptr noundef %115, ptr noundef %118, i32 noundef %121)
  store ptr %122, ptr %16, align 8
  %123 = load ptr, ptr %8, align 8
  %124 = load ptr, ptr %16, align 8
  %125 = load ptr, ptr %16, align 8
  %126 = call i32 @exprType(ptr noundef %125)
  %127 = call ptr @coerce_to_target_type(ptr noundef %123, ptr noundef %124, i32 noundef %126, i32 noundef 23, i32 noundef -1, i32 noundef 1, i32 noundef 2, i32 noundef -1)
  store ptr %127, ptr %16, align 8
  %128 = load ptr, ptr %16, align 8
  %129 = icmp eq ptr %128, null
  br i1 %129, label %130, label %148

130:                                              ; preds = %114
  br label %131

131:                                              ; preds = %130
  br i1 true, label %132, label %134

132:                                              ; preds = %131
  %133 = call zeroext i1 @errstart_cold(i32 noundef 21, ptr noundef null) #7
  br i1 %133, label %136, label %145

134:                                              ; preds = %131
  %135 = call zeroext i1 @errstart(i32 noundef 21, ptr noundef null)
  br i1 %135, label %136, label %145

136:                                              ; preds = %134, %132
  %137 = call i32 @errcode(i32 noundef 67141764)
  %138 = call i32 (ptr, ...) @errmsg(ptr noundef @.str)
  %139 = load ptr, ptr %8, align 8
  %140 = load ptr, ptr %15, align 8
  %141 = getelementptr inbounds nuw %struct.A_Indices, ptr %140, i32 0, i32 3
  %142 = load ptr, ptr %141, align 8
  %143 = call i32 @exprLocation(ptr noundef %142)
  %144 = call i32 @parser_errposition(ptr noundef %139, i32 noundef %143)
  call void @errfinish(ptr noundef @.str.1, i32 noundef 132, ptr noundef @__func__.array_subscript_transform)
  br label %145

145:                                              ; preds = %136, %134, %132
  unreachable

146:                                              ; No predecessors!
  br label %147

147:                                              ; preds = %146
  br label %148

148:                                              ; preds = %147, %114
  br label %150

149:                                              ; preds = %109
  store ptr null, ptr %16, align 8
  br label %150

150:                                              ; preds = %149, %148
  %151 = load ptr, ptr %11, align 8
  %152 = load ptr, ptr %16, align 8
  %153 = call ptr @lappend(ptr noundef %151, ptr noundef %152)
  store ptr %153, ptr %11, align 8
  call void @llvm.lifetime.end.p0(i64 8, ptr %16) #6
  call void @llvm.lifetime.end.p0(i64 8, ptr %15) #6
  br label %154

154:                                              ; preds = %150
  %155 = getelementptr inbounds nuw %struct.ForEachState, ptr %14, i32 0, i32 1
  %156 = load i32, ptr %155, align 8
  %157 = add i32 %156, 1
  store i32 %157, ptr %155, align 8
  br label %23, !llvm.loop !6

158:                                              ; preds = %48
  %159 = load ptr, ptr %11, align 8
  %160 = load ptr, ptr %6, align 8
  %161 = getelementptr inbounds nuw %struct.SubscriptingRef, ptr %160, i32 0, i32 6
  store ptr %159, ptr %161, align 8
  %162 = load ptr, ptr %12, align 8
  %163 = load ptr, ptr %6, align 8
  %164 = getelementptr inbounds nuw %struct.SubscriptingRef, ptr %163, i32 0, i32 7
  store ptr %162, ptr %164, align 8
  %165 = load ptr, ptr %11, align 8
  %166 = call i32 @list_length(ptr noundef %165)
  %167 = icmp sgt i32 %166, 6
  br i1 %167, label %168, label %182

168:                                              ; preds = %158
  br label %169

169:                                              ; preds = %168
  br i1 true, label %170, label %172

170:                                              ; preds = %169
  %171 = call zeroext i1 @errstart_cold(i32 noundef 21, ptr noundef null) #7
  br i1 %171, label %174, label %179

172:                                              ; preds = %169
  %173 = call zeroext i1 @errstart(i32 noundef 21, ptr noundef null)
  br i1 %173, label %174, label %179

174:                                              ; preds = %172, %170
  %175 = call i32 @errcode(i32 noundef 261)
  %176 = load ptr, ptr %11, align 8
  %177 = call i32 @list_length(ptr noundef %176)
  %178 = call i32 (ptr, ...) @errmsg(ptr noundef @.str.2, i32 noundef %177, i32 noundef 6)
  call void @errfinish(ptr noundef @.str.1, i32 noundef 152, ptr noundef @__func__.array_subscript_transform)
  br label %179

179:                                              ; preds = %174, %172, %170
  unreachable

180:                                              ; No predecessors!
  br label %181

181:                                              ; preds = %180
  br label %182

182:                                              ; preds = %181, %158
  %183 = load i8, ptr %9, align 1, !range !4, !noundef !5
  %184 = trunc i8 %183 to i1
  br i1 %184, label %185, label %191

185:                                              ; preds = %182
  %186 = load ptr, ptr %6, align 8
  %187 = getelementptr inbounds nuw %struct.SubscriptingRef, ptr %186, i32 0, i32 1
  %188 = load i32, ptr %187, align 4
  %189 = load ptr, ptr %6, align 8
  %190 = getelementptr inbounds nuw %struct.SubscriptingRef, ptr %189, i32 0, i32 3
  store i32 %188, ptr %190, align 4
  br label %197

191:                                              ; preds = %182
  %192 = load ptr, ptr %6, align 8
  %193 = getelementptr inbounds nuw %struct.SubscriptingRef, ptr %192, i32 0, i32 2
  %194 = load i32, ptr %193, align 8
  %195 = load ptr, ptr %6, align 8
  %196 = getelementptr inbounds nuw %struct.SubscriptingRef, ptr %195, i32 0, i32 3
  store i32 %194, ptr %196, align 4
  br label %197

197:                                              ; preds = %191, %185
  call void @llvm.lifetime.end.p0(i64 8, ptr %13) #6
  call void @llvm.lifetime.end.p0(i64 8, ptr %12) #6
  call void @llvm.lifetime.end.p0(i64 8, ptr %11) #6
  ret void
}